target datalayout = "e-m:e-p270:32:32-p271:32:32-p272:64:64-i64:64-i128:128-f80:128-n8:16:32:64-S128"
target triple = "x86_64-pc-linux-gnu"

@g = internal global ptr null, align 8
@t1 = internal global ptr null, align 8

; Function Attrs: nounwind uwtable
define internal void @msgbox_event_cb(ptr noundef %0) #0 {
  %2 = alloca ptr, align 8
  %3 = alloca ptr, align 8
  store ptr %0, ptr %2, align 8, !tbaa !14
  call void @llvm.lifetime.start.p0(i64 8, ptr %3) #4
  %4 = load ptr, ptr %2, align 8, !tbaa !14
  %5 = call ptr @lv_event_get_user_data(ptr noundef %4)
  store ptr %5, ptr %3, align 8, !tbaa !12
  %6 = load ptr, ptr %3, align 8, !tbaa !12
  call void @lv_msgbox_close(ptr noundef %6)
  %7 = load ptr, ptr @g, align 8, !tbaa !3
  call void @lv_group_focus_freeze(ptr noundef %7, i1 noundef zeroext false)
  %8 = load ptr, ptr @t1, align 8, !tbaa !12
  %9 = call ptr @lv_obj_get_child(ptr noundef %8, i32 noundef 0)
  call void @lv_group_focus_obj(ptr noundef %9)
  %10 = load ptr, ptr @t1, align 8, !tbaa !12
  call void @lv_obj_scroll_to(ptr noundef %10, i32 noundef 0, i32 noundef 0, i1 noundef zeroext false)
  call void @llvm.lifetime.end.p0(i64 8, ptr %3) #4
  ret void
}