; Function Attrs: nounwind uwtable
define internal void @msgbox_event_cb(ptr noundef %0) #0 {
  %2 = tail call ptr @lv_event_get_user_data(ptr noundef %0) #2
  tail call void @lv_msgbox_close(ptr noundef %2) #2
  %3 = load ptr, ptr @g, align 8, !tbaa !3
  tail call void @lv_group_focus_freeze(ptr noundef %3, i1 noundef zeroext false) #2
  %4 = load ptr, ptr @t1, align 8, !tbaa !8
  %5 = tail call ptr @lv_obj_get_child(ptr noundef %4, i32 noundef 0) #2
  tail call void @lv_group_focus_obj(ptr noundef %5) #2
  %6 = load ptr, ptr @t1, align 8, !tbaa !8
  tail call void @lv_obj_scroll_to(ptr noundef %6, i32 noundef 0, i32 noundef 0, i1 noundef zeroext false) #2
  ret void
}